target datalayout = "e-m:e-p270:32:32-p271:32:32-p272:64:64-i64:64-i128:128-f80:128-n8:16:32:64-S128"
target triple = "x86_64-pc-linux-gnu"

%"class.llvm::RegBankSelect::MappingCost" = type { i64, i64, i64 }

; Function Attrs: mustprogress nounwind uwtable
define dso_local noundef zeroext i1 @_ZNK4llvm13RegBankSelect11MappingCosteqERKS1_(ptr noundef nonnull align 8 dereferenceable(24) %0, ptr noundef nonnull align 8 dereferenceable(24) %1) #1 align 2 {
  %3 = alloca ptr, align 8
  %4 = alloca ptr, align 8
  store ptr %0, ptr %3, align 8
  store ptr %1, ptr %4, align 8
  %5 = load ptr, ptr %3, align 8
  %6 = getelementptr inbounds nuw %"class.llvm::RegBankSelect::MappingCost", ptr %5, i32 0, i32 0
  %7 = load i64, ptr %6, align 8
  %8 = load ptr, ptr %4, align 8
  %9 = getelementptr inbounds nuw %"class.llvm::RegBankSelect::MappingCost", ptr %8, i32 0, i32 0
  %10 = load i64, ptr %9, align 8
  %11 = icmp eq i64 %7, %10
  br i1 %11, label %12, label %26

12:                                               ; preds = %2
  %13 = getelementptr inbounds nuw %"class.llvm::RegBankSelect::MappingCost", ptr %5, i32 0, i32 1
  %14 = load i64, ptr %13, align 8
  %15 = load ptr, ptr %4, align 8
  %16 = getelementptr inbounds nuw %"class.llvm::RegBankSelect::MappingCost", ptr %15, i32 0, i32 1
  %17 = load i64, ptr %16, align 8
  %18 = icmp eq i64 %14, %17
  br i1 %18, label %19, label %26

19:                                               ; preds = %12
  %20 = getelementptr inbounds nuw %"class.llvm::RegBankSelect::MappingCost", ptr %5, i32 0, i32 2
  %21 = load i64, ptr %20, align 8
  %22 = load ptr, ptr %4, align 8
  %23 = getelementptr inbounds nuw %"class.llvm::RegBankSelect::MappingCost", ptr %22, i32 0, i32 2
  %24 = load i64, ptr %23, align 8
  %25 = icmp eq i64 %21, %24
  br label %26

26:                                               ; preds = %19, %12, %2
  %27 = phi i1 [ false, %12 ], [ false, %2 ], [ %25, %19 ]
  ret i1 %27
}