; Function Attrs: mustprogress nofree norecurse nosync nounwind willreturn memory(argmem: read) uwtable
define dso_local noundef zeroext i1 @_ZNK4llvm13RegBankSelect11MappingCosteqERKS1_(ptr noundef nonnull readonly align 8 captures(none) dereferenceable(24) %0, ptr noundef nonnull readonly align 8 captures(none) dereferenceable(24) %1) local_unnamed_addr #7 align 2 {
  %3 = load i64, ptr %0, align 8
  %4 = load i64, ptr %1, align 8
  %5 = icmp eq i64 %3, %4
  br i1 %5, label %6, label %18

6:                                                ; preds = %2
  %7 = getelementptr inbounds nuw i8, ptr %0, i64 8
  %8 = load i64, ptr %7, align 8
  %9 = getelementptr inbounds nuw i8, ptr %1, i64 8
  %10 = load i64, ptr %9, align 8
  %11 = icmp eq i64 %8, %10
  br i1 %11, label %12, label %18

12:                                               ; preds = %6
  %13 = getelementptr inbounds nuw i8, ptr %0, i64 16
  %14 = load i64, ptr %13, align 8
  %15 = getelementptr inbounds nuw i8, ptr %1, i64 16
  %16 = load i64, ptr %15, align 8
  %17 = icmp eq i64 %14, %16
  br label %18

18:                                               ; preds = %12, %6, %2
  %19 = phi i1 [ false, %6 ], [ false, %2 ], [ %17, %12 ]
  ret i1 %19
}